target datalayout = "e-m:e-p270:32:32-p271:32:32-p272:64:64-i64:64-i128:128-f80:128-n8:16:32:64-S128"
target triple = "x86_64-pc-linux-gnu"

%struct.CVodeMemRec = type { ptr, double, ptr, ptr, i32, i32, double, double, ptr, i32, i32, ptr, ptr, i32, i32, ptr, i32, i32, double, double, ptr, i32, i32, i32, i32, ptr, ptr, ptr, i32, i32, ptr, ptr, ptr, i32, double, i32, i32, double, ptr, ptr, ptr, i32, ptr, ptr, i32, i32, i32, double, ptr, ptr, ptr, [13 x ptr], ptr, ptr, ptr, ptr, ptr, ptr, ptr, ptr, ptr, [13 x ptr], ptr, ptr, ptr, ptr, [13 x ptr], ptr, ptr, ptr, ptr, ptr, i32, [13 x ptr], ptr, ptr, ptr, ptr, ptr, i32, i32, double, i32, i32, i32, i32, i32, double, double, double, double, double, double, double, double, [14 x double], [6 x double], [13 x double], double, double, double, double, double, double, double, double, i32, double, double, i32, double, double, ptr, i32, i64, i32, i32, i32, double, double, double, double, double, double, double, double, double, double, double, double, i64, i32, i64, i64, i64, i64, i64, i64, i64, i64, i64, ptr, i64, i64, ptr, i64, i64, ptr, i64, i64, i64, i64, i64, i64, i32, double, double, double, i64, i64, i64, i64, i64, i64, ptr, i32, ptr, i32, ptr, i32, ptr, i32, i32, i64, i32, ptr, i32, ptr, ptr, ptr, ptr, ptr, ptr, i32, i32, ptr, ptr, ptr, ptr, ptr, i64, double, i32, i32, i64, double, double, double, i32, i32, double, i32, i32, i32, i32, i32, i32, i32, i32, i32, i32, i32, i32, i32, i32, i32, i32, ptr, i64, i32, [6 x [4 x double]], i32, i64, ptr, i32, ptr, ptr, double, double, double, ptr, ptr, ptr, double, double, i32, i32, i64, ptr, i32, ptr, i32, i32, [13 x double], ptr, ptr, ptr, i32, ptr, i32 }
%struct._generic_N_Vector = type { ptr, ptr, ptr }
%struct._N_VectorContent_SensWrapper = type { ptr, i32, i32 }

@.str = private unnamed_addr constant [123 x i8] c"generated/home/dtcxzyw/WorkSpace/Projects/compilers/llvm-opt-benchmark/bench/sundials/sundials/src/cvodes/cvodes_nls_sim.c\00", align 1
@.str.1 = private unnamed_addr constant [26 x i8] c"cvode_mem = NULL illegal.\00", align 1
@__func__.cvNlsConvTestSensSim = private unnamed_addr constant [21 x i8] c"cvNlsConvTestSensSim\00", align 1

; Function Attrs: nounwind uwtable
define internal i32 @cvNlsConvTestSensSim(ptr noundef %0, ptr noundef %1, ptr noundef %2, double noundef %3, ptr noundef %4, ptr noundef %5) #0 {
  %7 = alloca i32, align 4
  %8 = alloca ptr, align 8
  %9 = alloca ptr, align 8
  %10 = alloca ptr, align 8
  %11 = alloca double, align 8
  %12 = alloca ptr, align 8
  %13 = alloca ptr, align 8
  %14 = alloca ptr, align 8
  %15 = alloca i32, align 4
  %16 = alloca i32, align 4
  %17 = alloca double, align 8
  %18 = alloca double, align 8
  %19 = alloca double, align 8
  %20 = alloca double, align 8
  %21 = alloca ptr, align 8
  %22 = alloca ptr, align 8
  %23 = alloca ptr, align 8
  %24 = alloca ptr, align 8
  %25 = alloca ptr, align 8
  store ptr %0, ptr %8, align 8
  store ptr %1, ptr %9, align 8
  store ptr %2, ptr %10, align 8
  store double %3, ptr %11, align 8
  store ptr %4, ptr %12, align 8
  store ptr %5, ptr %13, align 8
  %26 = load ptr, ptr %13, align 8
  %27 = icmp eq ptr %26, null
  br i1 %27, label %28, label %29

28:                                               ; preds = %6
  call void (ptr, i32, i32, ptr, ptr, ptr, ...) @cvProcessError(ptr noundef null, i32 noundef -21, i32 noundef 387, ptr noundef @__func__.cvNlsConvTestSensSim, ptr noundef @.str, ptr noundef @.str.1)
  store i32 -21, ptr %7, align 4
  br label %176

29:                                               ; preds = %6
  %30 = load ptr, ptr %13, align 8
  store ptr %30, ptr %14, align 8
  %31 = load ptr, ptr %9, align 8
  %32 = getelementptr inbounds %struct._generic_N_Vector, ptr %31, i32 0, i32 0
  %33 = load ptr, ptr %32, align 8
  %34 = getelementptr inbounds %struct._N_VectorContent_SensWrapper, ptr %33, i32 0, i32 0
  %35 = load ptr, ptr %34, align 8
  %36 = getelementptr inbounds ptr, ptr %35, i64 0
  %37 = load ptr, ptr %36, align 8
  store ptr %37, ptr %21, align 8
  %38 = load ptr, ptr %10, align 8
  %39 = getelementptr inbounds %struct._generic_N_Vector, ptr %38, i32 0, i32 0
  %40 = load ptr, ptr %39, align 8
  %41 = getelementptr inbounds %struct._N_VectorContent_SensWrapper, ptr %40, i32 0, i32 0
  %42 = load ptr, ptr %41, align 8
  %43 = getelementptr inbounds ptr, ptr %42, i64 0
  %44 = load ptr, ptr %43, align 8
  store ptr %44, ptr %22, align 8
  %45 = load ptr, ptr %10, align 8
  %46 = getelementptr inbounds %struct._generic_N_Vector, ptr %45, i32 0, i32 0
  %47 = load ptr, ptr %46, align 8
  %48 = getelementptr inbounds %struct._N_VectorContent_SensWrapper, ptr %47, i32 0, i32 0
  %49 = load ptr, ptr %48, align 8
  %50 = getelementptr inbounds ptr, ptr %49, i64 1
  store ptr %50, ptr %24, align 8
  %51 = load ptr, ptr %12, align 8
  %52 = getelementptr inbounds %struct._generic_N_Vector, ptr %51, i32 0, i32 0
  %53 = load ptr, ptr %52, align 8
  %54 = getelementptr inbounds %struct._N_VectorContent_SensWrapper, ptr %53, i32 0, i32 0
  %55 = load ptr, ptr %54, align 8
  %56 = getelementptr inbounds ptr, ptr %55, i64 0
  %57 = load ptr, ptr %56, align 8
  store ptr %57, ptr %23, align 8
  %58 = load ptr, ptr %12, align 8
  %59 = getelementptr inbounds %struct._generic_N_Vector, ptr %58, i32 0, i32 0
  %60 = load ptr, ptr %59, align 8
  %61 = getelementptr inbounds %struct._N_VectorContent_SensWrapper, ptr %60, i32 0, i32 0
  %62 = load ptr, ptr %61, align 8
  %63 = getelementptr inbounds ptr, ptr %62, i64 1
  store ptr %63, ptr %25, align 8
  %64 = load ptr, ptr %22, align 8
  %65 = load ptr, ptr %23, align 8
  %66 = call double @N_VWrmsNorm(ptr noundef %64, ptr noundef %65)
  store double %66, ptr %17, align 8
  %67 = load ptr, ptr %14, align 8
  %68 = load double, ptr %17, align 8
  %69 = load ptr, ptr %24, align 8
  %70 = load ptr, ptr %25, align 8
  %71 = call double @cvSensUpdateNorm(ptr noundef %67, double noundef %68, ptr noundef %69, ptr noundef %70)
  store double %71, ptr %18, align 8
  %72 = load double, ptr %18, align 8
  store double %72, ptr %19, align 8
  %73 = load ptr, ptr %8, align 8
  %74 = call i32 @SUNNonlinSolGetCurIter(ptr noundef %73, ptr noundef %15)
  store i32 %74, ptr %16, align 4
  %75 = load i32, ptr %16, align 4
  %76 = icmp ne i32 %75, 0
  br i1 %76, label %77, label %78

77:                                               ; preds = %29
  store i32 -21, ptr %7, align 4
  br label %176

78:                                               ; preds = %29
  %79 = load i32, ptr %15, align 4
  %80 = icmp sgt i32 %79, 0
  br i1 %80, label %81, label %107

81:                                               ; preds = %78
  %82 = load ptr, ptr %14, align 8
  %83 = getelementptr inbounds %struct.CVodeMemRec, ptr %82, i32 0, i32 102
  %84 = load double, ptr %83, align 8
  %85 = fmul double 3.000000e-01, %84
  %86 = load double, ptr %19, align 8
  %87 = load ptr, ptr %14, align 8
  %88 = getelementptr inbounds %struct.CVodeMemRec, ptr %87, i32 0, i32 104
  %89 = load double, ptr %88, align 8
  %90 = fdiv double %86, %89
  %91 = fcmp ogt double %85, %90
  br i1 %91, label %92, label %97

92:                                               ; preds = %81
  %93 = load ptr, ptr %14, align 8
  %94 = getelementptr inbounds %struct.CVodeMemRec, ptr %93, i32 0, i32 102
  %95 = load double, ptr %94, align 8
  %96 = fmul double 3.000000e-01, %95
  br label %103

97:                                               ; preds = %81
  %98 = load double, ptr %19, align 8
  %99 = load ptr, ptr %14, align 8
  %100 = getelementptr inbounds %struct.CVodeMemRec, ptr %99, i32 0, i32 104
  %101 = load double, ptr %100, align 8
  %102 = fdiv double %98, %101
  br label %103

103:                                              ; preds = %97, %92
  %104 = phi double [ %96, %92 ], [ %102, %97 ]
  %105 = load ptr, ptr %14, align 8
  %106 = getelementptr inbounds %struct.CVodeMemRec, ptr %105, i32 0, i32 102
  store double %104, ptr %106, align 8
  br label %107

107:                                              ; preds = %103, %78
  %108 = load double, ptr %19, align 8
  %109 = load ptr, ptr %14, align 8
  %110 = getelementptr inbounds %struct.CVodeMemRec, ptr %109, i32 0, i32 102
  %111 = load double, ptr %110, align 8
  %112 = fcmp olt double 1.000000e+00, %111
  br i1 %112, label %113, label %114

113:                                              ; preds = %107
  br label %118

114:                                              ; preds = %107
  %115 = load ptr, ptr %14, align 8
  %116 = getelementptr inbounds %struct.CVodeMemRec, ptr %115, i32 0, i32 102
  %117 = load double, ptr %116, align 8
  br label %118

118:                                              ; preds = %114, %113
  %119 = phi double [ 1.000000e+00, %113 ], [ %117, %114 ]
  %120 = fmul double %108, %119
  %121 = load double, ptr %11, align 8
  %122 = fdiv double %120, %121
  store double %122, ptr %20, align 8
  %123 = load double, ptr %20, align 8
  %124 = fcmp ole double %123, 1.000000e+00
  br i1 %124, label %125, label %161

125:                                              ; preds = %118
  %126 = load i32, ptr %15, align 4
  %127 = icmp eq i32 %126, 0
  br i1 %127, label %128, label %141

128:                                              ; preds = %125
  %129 = load ptr, ptr %14, align 8
  %130 = getelementptr inbounds %struct.CVodeMemRec, ptr %129, i32 0, i32 35
  %131 = load i32, ptr %130, align 8
  %132 = icmp ne i32 %131, 0
  br i1 %132, label %133, label %135

133:                                              ; preds = %128
  %134 = load double, ptr %18, align 8
  br label %137

135:                                              ; preds = %128
  %136 = load double, ptr %17, align 8
  br label %137

137:                                              ; preds = %135, %133
  %138 = phi double [ %134, %133 ], [ %136, %135 ]
  %139 = load ptr, ptr %14, align 8
  %140 = getelementptr inbounds %struct.CVodeMemRec, ptr %139, i32 0, i32 105
  store double %138, ptr %140, align 8
  br label %158

141:                                              ; preds = %125
  %142 = load ptr, ptr %14, align 8
  %143 = getelementptr inbounds %struct.CVodeMemRec, ptr %142, i32 0, i32 35
  %144 = load i32, ptr %143, align 8
  %145 = icmp ne i32 %144, 0
  br i1 %145, label %146, label %150

146:                                              ; preds = %141
  %147 = load ptr, ptr %9, align 8
  %148 = load ptr, ptr %12, align 8
  %149 = call double @N_VWrmsNorm(ptr noundef %147, ptr noundef %148)
  br label %154

150:                                              ; preds = %141
  %151 = load ptr, ptr %21, align 8
  %152 = load ptr, ptr %23, align 8
  %153 = call double @N_VWrmsNorm(ptr noundef %151, ptr noundef %152)
  br label %154

154:                                              ; preds = %150, %146
  %155 = phi double [ %149, %146 ], [ %153, %150 ]
  %156 = load ptr, ptr %14, align 8
  %157 = getelementptr inbounds %struct.CVodeMemRec, ptr %156, i32 0, i32 105
  store double %155, ptr %157, align 8
  br label %158

158:                                              ; preds = %154, %137
  %159 = load ptr, ptr %14, align 8
  %160 = getelementptr inbounds %struct.CVodeMemRec, ptr %159, i32 0, i32 106
  store i32 1, ptr %160, align 8
  store i32 0, ptr %7, align 4
  br label %176

161:                                              ; preds = %118
  %162 = load i32, ptr %15, align 4
  %163 = icmp sge i32 %162, 1
  br i1 %163, label %164, label %172

164:                                              ; preds = %161
  %165 = load double, ptr %19, align 8
  %166 = load ptr, ptr %14, align 8
  %167 = getelementptr inbounds %struct.CVodeMemRec, ptr %166, i32 0, i32 104
  %168 = load double, ptr %167, align 8
  %169 = fmul double 2.000000e+00, %168
  %170 = fcmp ogt double %165, %169
  br i1 %170, label %171, label %172

171:                                              ; preds = %164
  store i32 902, ptr %7, align 4
  br label %176

172:                                              ; preds = %164, %161
  %173 = load double, ptr %19, align 8
  %174 = load ptr, ptr %14, align 8
  %175 = getelementptr inbounds %struct.CVodeMemRec, ptr %174, i32 0, i32 104
  store double %173, ptr %175, align 8
  store i32 901, ptr %7, align 4
  br label %176

176:                                              ; preds = %172, %171, %158, %77, %28
  %177 = load i32, ptr %7, align 4
  ret i32 %177
}