; Function Attrs: nounwind uwtable
define internal range(i32 -21, 903) i32 @cvNlsConvTestSensSim(ptr noundef %0, ptr noundef %1, ptr noundef readonly captures(none) %2, double noundef %3, ptr noundef %4, ptr noundef %5) #0 {
  %7 = alloca i32, align 4
  %8 = icmp eq ptr %5, null
  br i1 %8, label %9, label %10

9:                                                ; preds = %6
  tail call void (ptr, i32, i32, ptr, ptr, ptr, ...) @cvProcessError(ptr noundef null, i32 noundef -21, i32 noundef 387, ptr noundef nonnull @__func__.cvNlsConvTestSensSim, ptr noundef nonnull @.str, ptr noundef nonnull @.str.1) #2
  br label %65

10:                                               ; preds = %6
  %11 = load ptr, ptr %1, align 8
  %12 = load ptr, ptr %11, align 8
  %13 = load ptr, ptr %12, align 8
  %14 = load ptr, ptr %2, align 8
  %15 = load ptr, ptr %14, align 8
  %16 = load ptr, ptr %15, align 8
  %17 = getelementptr inbounds nuw i8, ptr %15, i64 8
  %18 = load ptr, ptr %4, align 8
  %19 = load ptr, ptr %18, align 8
  %20 = load ptr, ptr %19, align 8
  %21 = getelementptr inbounds nuw i8, ptr %19, i64 8
  %22 = tail call double @N_VWrmsNorm(ptr noundef %16, ptr noundef %20) #2
  %23 = tail call double @cvSensUpdateNorm(ptr noundef nonnull %5, double noundef %22, ptr noundef nonnull %17, ptr noundef nonnull %21) #2
  %24 = call i32 @SUNNonlinSolGetCurIter(ptr noundef %0, ptr noundef nonnull %7) #2
  %.not = icmp eq i32 %24, 0
  br i1 %.not, label %25, label %65

25:                                               ; preds = %10
  %26 = load i32, ptr %7, align 4
  %27 = icmp sgt i32 %26, 0
  %28 = getelementptr inbounds nuw i8, ptr %5, i64 1344
  %29 = load double, ptr %28, align 8
  br i1 %27, label %30, label %.thread

30:                                               ; preds = %25
  %31 = fmul double %29, 3.000000e-01
  %32 = getelementptr inbounds nuw i8, ptr %5, i64 1360
  %33 = load double, ptr %32, align 8
  %34 = fdiv double %23, %33
  %35 = fcmp ogt double %31, %34
  %. = select i1 %35, double %31, double %34
  store double %., ptr %28, align 8
  %36 = fcmp ogt double %., 1.000000e+00
  %37 = select i1 %36, double 1.000000e+00, double %.
  %38 = fmul double %23, %37
  %39 = fdiv double %38, %3
  %40 = fcmp ugt double %39, 1.000000e+00
  br i1 %40, label %61, label %.thread50

.thread:                                          ; preds = %25
  %41 = fcmp ogt double %29, 1.000000e+00
  %42 = select i1 %41, double 1.000000e+00, double %29
  %43 = fmul double %23, %42
  %44 = fdiv double %43, %3
  %45 = fcmp ugt double %44, 1.000000e+00
  br i1 %45, label %.thread49, label %46

46:                                               ; preds = %.thread
  %47 = icmp eq i32 %26, 0
  br i1 %47, label %48, label %.thread50

48:                                               ; preds = %46
  %49 = getelementptr inbounds nuw i8, ptr %5, i64 224
  %50 = load i32, ptr %49, align 8
  %.not48 = icmp eq i32 %50, 0
  %51 = select i1 %.not48, double %22, double %23
  br label %58

.thread50:                                        ; preds = %30, %46
  %52 = getelementptr inbounds nuw i8, ptr %5, i64 224
  %53 = load i32, ptr %52, align 8
  %.not47 = icmp eq i32 %53, 0
  br i1 %.not47, label %56, label %54

54:                                               ; preds = %.thread50
  %55 = call double @N_VWrmsNorm(ptr noundef nonnull %1, ptr noundef nonnull %4) #2
  br label %58

56:                                               ; preds = %.thread50
  %57 = call double @N_VWrmsNorm(ptr noundef %13, ptr noundef %20) #2
  br label %58

58:                                               ; preds = %54, %56, %48
  %.sink = phi double [ %51, %48 ], [ %55, %54 ], [ %57, %56 ]
  %59 = getelementptr inbounds nuw i8, ptr %5, i64 1368
  store double %.sink, ptr %59, align 8
  %60 = getelementptr inbounds nuw i8, ptr %5, i64 1376
  store i32 1, ptr %60, align 8
  br label %65

61:                                               ; preds = %30
  %62 = fmul double %33, 2.000000e+00
  %63 = fcmp ogt double %23, %62
  br i1 %63, label %65, label %.thread49

.thread49:                                        ; preds = %.thread, %61
  %64 = getelementptr inbounds nuw i8, ptr %5, i64 1360
  store double %23, ptr %64, align 8
  br label %65

65:                                               ; preds = %61, %10, %.thread49, %58, %9
  %.0 = phi i32 [ -21, %9 ], [ 0, %58 ], [ 901, %.thread49 ], [ -21, %10 ], [ 902, %61 ]
  ret i32 %.0
}